target datalayout = "e-m:e-p270:32:32-p271:32:32-p272:64:64-i64:64-i128:128-f80:128-n8:16:32:64-S128"
target triple = "x86_64-pc-linux-gnu"

%struct.SDL_Keyboard = type { ptr, i16, [512 x i8], [512 x i8], ptr, i32, i8, i64, i32 }

@SDL_keyboard = internal global %struct.SDL_Keyboard zeroinitializer, align 8

; Function Attrs: nounwind uwtable
define internal void @SetKeymapEntry(i32 noundef %0, i16 noundef zeroext %1, i32 noundef %2) #0 {
  %4 = alloca i32, align 4
  %5 = alloca i16, align 2
  %6 = alloca i32, align 4
  %7 = alloca ptr, align 8
  store i32 %0, ptr %4, align 4
  store i16 %1, ptr %5, align 2
  store i32 %2, ptr %6, align 4
  call void @llvm.lifetime.start.p0(i64 8, ptr %7) #6
  store ptr @SDL_keyboard, ptr %7, align 8
  %8 = load ptr, ptr %7, align 8
  %9 = getelementptr inbounds nuw %struct.SDL_Keyboard, ptr %8, i32 0, i32 4
  %10 = load ptr, ptr %9, align 8
  %11 = icmp ne ptr %10, null
  br i1 %11, label %16, label %12

12:                                               ; preds = %3
  %13 = call ptr @SDL_CreateKeymap(i1 noundef zeroext true)
  %14 = load ptr, ptr %7, align 8
  %15 = getelementptr inbounds nuw %struct.SDL_Keyboard, ptr %14, i32 0, i32 4
  store ptr %13, ptr %15, align 8
  br label %16

16:                                               ; preds = %12, %3
  %17 = load ptr, ptr %7, align 8
  %18 = getelementptr inbounds nuw %struct.SDL_Keyboard, ptr %17, i32 0, i32 4
  %19 = load ptr, ptr %18, align 8
  %20 = load i32, ptr %4, align 4
  %21 = load i16, ptr %5, align 2
  %22 = load i32, ptr %6, align 4
  call void @SDL_SetKeymapEntry(ptr noundef %19, i32 noundef %20, i16 noundef zeroext %21, i32 noundef %22)
  call void @llvm.lifetime.end.p0(i64 8, ptr %7) #6
  ret void
}

; Function Attrs: nounwind uwtable
define hidden zeroext i16 @SDL_GetModState_REAL() #0 {
  %1 = alloca ptr, align 8
  call void @llvm.lifetime.start.p0(i64 8, ptr %1) #6
  store ptr @SDL_keyboard, ptr %1, align 8
  %2 = load ptr, ptr %1, align 8
  %3 = getelementptr inbounds nuw %struct.SDL_Keyboard, ptr %2, i32 0, i32 1
  %4 = load i16, ptr %3, align 8
  call void @llvm.lifetime.end.p0(i64 8, ptr %1) #6
  ret i16 %4
}

; Function Attrs: nounwind uwtable
define hidden zeroext i1 @SDL_SendKeyboardKeyAndKeycode(i64 noundef %0, i32 noundef %1, i32 noundef %2, i32 noundef %3, i32 noundef %4, i1 noundef zeroext %5) #0 {
  %7 = alloca i64, align 8
  %8 = alloca i32, align 4
  %9 = alloca i32, align 4
  %10 = alloca i32, align 4
  %11 = alloca i32, align 4
  %12 = alloca i8, align 1
  store i64 %0, ptr %7, align 8
  store i32 %1, ptr %8, align 4
  store i32 %2, ptr %9, align 4
  store i32 %3, ptr %10, align 4
  store i32 %4, ptr %11, align 4
  %13 = zext i1 %5 to i8
  store i8 %13, ptr %12, align 1
  %14 = load i8, ptr %12, align 1, !range !3, !noundef !4
  %15 = trunc i8 %14 to i1
  br i1 %15, label %16, label %20

16:                                               ; preds = %6
  %17 = load i32, ptr %10, align 4
  %18 = call zeroext i16 @SDL_GetModState_REAL()
  %19 = load i32, ptr %11, align 4
  call void @SetKeymapEntry(i32 noundef %17, i16 noundef zeroext %18, i32 noundef %19)
  br label %20

20:                                               ; preds = %16, %6
  %21 = load i64, ptr %7, align 8
  %22 = load i32, ptr %8, align 4
  %23 = load i32, ptr %9, align 4
  %24 = load i32, ptr %10, align 4
  %25 = load i8, ptr %12, align 1, !range !3, !noundef !4
  %26 = trunc i8 %25 to i1
  %27 = call zeroext i1 @SDL_SendKeyboardKeyInternal(i64 noundef %21, i32 noundef 1, i32 noundef %22, i32 noundef %23, i32 noundef %24, i1 noundef zeroext %26)
  ret i1 %27
}