; Function Attrs: nounwind uwtable
define hidden zeroext i1 @SDL_SendKeyboardKeyAndKeycode(i64 noundef %0, i32 noundef %1, i32 noundef %2, i32 noundef %3, i32 noundef %4, i1 noundef zeroext %5) local_unnamed_addr #0 {
  br i1 %5, label %7, label %13

7:                                                ; preds = %6
  %8 = load i16, ptr getelementptr inbounds nuw (i8, ptr @SDL_keyboard, i64 8), align 8
  %9 = load ptr, ptr getelementptr inbounds nuw (i8, ptr @SDL_keyboard, i64 1040), align 8
  %.not.i = icmp eq ptr %9, null
  br i1 %.not.i, label %10, label %SetKeymapEntry.exit

10:                                               ; preds = %7
  %11 = tail call ptr @SDL_CreateKeymap(i1 noundef zeroext true) #13
  store ptr %11, ptr getelementptr inbounds nuw (i8, ptr @SDL_keyboard, i64 1040), align 8
  br label %SetKeymapEntry.exit

SetKeymapEntry.exit:                              ; preds = %7, %10
  %12 = phi ptr [ %11, %10 ], [ %9, %7 ]
  tail call void @SDL_SetKeymapEntry(ptr noundef %12, i32 noundef %3, i16 noundef zeroext %8, i32 noundef %4) #13
  br label %13

13:                                               ; preds = %SetKeymapEntry.exit, %6
  %14 = tail call fastcc zeroext i1 @SDL_SendKeyboardKeyInternal(i64 noundef %0, i32 noundef 1, i32 noundef %1, i32 noundef %2, i32 noundef %3, i1 noundef zeroext %5)
  ret i1 %14
}